; Function Attrs: mustprogress nounwind uwtable
define dso_local noundef i64 @_ZNK4llvm6object15XCOFFObjectFile26getEndOfSymbolTableAddressEv(ptr noundef nonnull align 8 dereferenceable(96) %0) local_unnamed_addr #0 align 2 {
  %2 = load ptr, ptr %0, align 8
  %3 = getelementptr inbounds i8, ptr %2, i64 64
  %4 = load ptr, ptr %3, align 8
  %5 = tail call noundef zeroext i1 %4(ptr noundef nonnull align 8 dereferenceable(96) %0) #23
  %6 = getelementptr inbounds nuw i8, ptr %0, i64 48
  %7 = load ptr, ptr %6, align 8
  br i1 %5, label %8, label %11

8:                                                ; preds = %1
  %9 = getelementptr inbounds nuw i8, ptr %7, i64 20
  call void @llvm.assume(i1 true) [ "align"(ptr %9, i64 1) ]
  %.0.copyload.i.i.i.i.i = load i32, ptr %9, align 1
  %10 = tail call noundef i32 @llvm.bswap.i32(i32 %.0.copyload.i.i.i.i.i)
  br label %_ZNK4llvm6object15XCOFFObjectFile29getNumberOfSymbolTableEntriesEv.exit

11:                                               ; preds = %1
  %12 = getelementptr inbounds nuw i8, ptr %7, i64 12
  call void @llvm.assume(i1 true) [ "align"(ptr %12, i64 1) ]
  %.0.copyload.i.i.i.i1.i = load i32, ptr %12, align 1
  %13 = tail call noundef i32 @llvm.bswap.i32(i32 %.0.copyload.i.i.i.i1.i)
  %spec.select.i.i = tail call noundef range(i32 0, -2147483648) i32 @llvm.smax.i32(i32 %13, i32 0)
  br label %_ZNK4llvm6object15XCOFFObjectFile29getNumberOfSymbolTableEntriesEv.exit

_ZNK4llvm6object15XCOFFObjectFile29getNumberOfSymbolTableEntriesEv.exit: ; preds = %8, %11
  %14 = phi i32 [ %10, %8 ], [ %spec.select.i.i, %11 ]
  %15 = getelementptr inbounds nuw i8, ptr %0, i64 72
  %16 = load ptr, ptr %15, align 8
  %17 = ptrtoint ptr %16 to i64
  %18 = zext i32 %14 to i64
  %19 = mul nuw nsw i64 %18, 18
  %20 = add i64 %19, %17
  ret i64 %20
}